target datalayout = "e-m:e-p270:32:32-p271:32:32-p272:64:64-i64:64-i128:128-f80:128-n8:16:32:64-S128"
target triple = "x86_64-unknown-linux-gnu"

%"class.std::__cxx11::basic_string" = type { %"struct.std::__cxx11::basic_string<char>::_Alloc_hider", i64, %union.anon }
%"struct.std::__cxx11::basic_string<char>::_Alloc_hider" = type { ptr }
%union.anon = type { i64, [8 x i8] }
%"class.Assimp::LWSImporter" = type <{ %"class.Assimp::BaseImporter", i8, [7 x i8], ptr, double, double, double, i8, [7 x i8] }>
%"class.Assimp::BaseImporter" = type { ptr, double, double, %"class.std::__cxx11::basic_string", %"class.std::__exception_ptr::exception_ptr", ptr }
%"class.std::__exception_ptr::exception_ptr" = type { ptr }

@.str.3 = private unnamed_addr constant [13 x i8] c"FAVOUR_SPEED\00", align 1
@.str.4 = private unnamed_addr constant [22 x i8] c"IMPORT_LWS_ANIM_START\00", align 1
@.str.5 = private unnamed_addr constant [20 x i8] c"IMPORT_LWS_ANIM_END\00", align 1
@.str.6 = private unnamed_addr constant [26 x i8] c"IMPORT_NO_SKELETON_MESHES\00", align 1

; Function Attrs: mustprogress nounwind uwtable
define linkonce_odr void @_ZSt4swapIdENSt9enable_ifIXsr6__and_ISt6__not_ISt15__is_tuple_likeIT_EESt21is_move_constructibleIS3_ESt18is_move_assignableIS3_EEE5valueEvE4typeERS3_SC_(ptr noundef nonnull align 8 dereferenceable(8) %__a, ptr noundef nonnull align 8 dereferenceable(8) %__b) #0 comdat {
entry:
  %__a.addr = alloca ptr, align 8
  %__b.addr = alloca ptr, align 8
  %__tmp = alloca double, align 8
  store ptr %__a, ptr %__a.addr, align 8
  store ptr %__b, ptr %__b.addr, align 8
  %0 = load ptr, ptr %__a.addr, align 8
  %1 = load double, ptr %0, align 8
  store double %1, ptr %__tmp, align 8
  %2 = load ptr, ptr %__b.addr, align 8
  %3 = load double, ptr %2, align 8
  %4 = load ptr, ptr %__a.addr, align 8
  store double %3, ptr %4, align 8
  %5 = load double, ptr %__tmp, align 8
  %6 = load ptr, ptr %__b.addr, align 8
  store double %5, ptr %6, align 8
  ret void
}

; Function Attrs: mustprogress uwtable
define hidden void @_ZN6Assimp11LWSImporter15SetupPropertiesEPKNS_8ImporterE(ptr noundef nonnull align 8 dereferenceable(113) %this, ptr noundef %pImp) unnamed_addr #2 align 2 {
entry:
  %this.addr = alloca ptr, align 8
  %pImp.addr = alloca ptr, align 8
  store ptr %this, ptr %this.addr, align 8
  store ptr %pImp, ptr %pImp.addr, align 8
  %this1 = load ptr, ptr %this.addr, align 8
  %0 = load ptr, ptr %pImp.addr, align 8
  %call = call noundef i32 @_ZNK6Assimp8Importer18GetPropertyIntegerEPKci(ptr noundef nonnull align 8 dereferenceable(8) %0, ptr noundef @.str.3, i32 noundef 0)
  %cmp = icmp ne i32 0, %call
  %configSpeedFlag = getelementptr inbounds %"class.Assimp::LWSImporter", ptr %this1, i32 0, i32 1
  %frombool = zext i1 %cmp to i8
  store i8 %frombool, ptr %configSpeedFlag, align 8
  %1 = load ptr, ptr %pImp.addr, align 8
  %call2 = call noundef i32 @_ZNK6Assimp8Importer18GetPropertyIntegerEPKci(ptr noundef nonnull align 8 dereferenceable(8) %1, ptr noundef @.str.4, i32 noundef 150392)
  %conv = sitofp i32 %call2 to double
  %first = getelementptr inbounds %"class.Assimp::LWSImporter", ptr %this1, i32 0, i32 4
  store double %conv, ptr %first, align 8
  %2 = load ptr, ptr %pImp.addr, align 8
  %call3 = call noundef i32 @_ZNK6Assimp8Importer18GetPropertyIntegerEPKci(ptr noundef nonnull align 8 dereferenceable(8) %2, ptr noundef @.str.5, i32 noundef 150392)
  %conv4 = sitofp i32 %call3 to double
  %last = getelementptr inbounds %"class.Assimp::LWSImporter", ptr %this1, i32 0, i32 5
  store double %conv4, ptr %last, align 8
  %last5 = getelementptr inbounds %"class.Assimp::LWSImporter", ptr %this1, i32 0, i32 5
  %3 = load double, ptr %last5, align 8
  %first6 = getelementptr inbounds %"class.Assimp::LWSImporter", ptr %this1, i32 0, i32 4
  %4 = load double, ptr %first6, align 8
  %cmp7 = fcmp olt double %3, %4
  br i1 %cmp7, label %if.then, label %if.end

if.then:                                          ; preds = %entry
  %last8 = getelementptr inbounds %"class.Assimp::LWSImporter", ptr %this1, i32 0, i32 5
  %first9 = getelementptr inbounds %"class.Assimp::LWSImporter", ptr %this1, i32 0, i32 4
  call void @_ZSt4swapIdENSt9enable_ifIXsr6__and_ISt6__not_ISt15__is_tuple_likeIT_EESt21is_move_constructibleIS3_ESt18is_move_assignableIS3_EEE5valueEvE4typeERS3_SC_(ptr noundef nonnull align 8 dereferenceable(8) %last8, ptr noundef nonnull align 8 dereferenceable(8) %first9) #14
  br label %if.end

if.end:                                           ; preds = %if.then, %entry
  %5 = load ptr, ptr %pImp.addr, align 8
  %call10 = call noundef i32 @_ZNK6Assimp8Importer18GetPropertyIntegerEPKci(ptr noundef nonnull align 8 dereferenceable(8) %5, ptr noundef @.str.6, i32 noundef 0)
  %cmp11 = icmp ne i32 %call10, 0
  %noSkeletonMesh = getelementptr inbounds %"class.Assimp::LWSImporter", ptr %this1, i32 0, i32 7
  %frombool12 = zext i1 %cmp11 to i8
  store i8 %frombool12, ptr %noSkeletonMesh, align 8
  ret void
}