; Function Attrs: mustprogress uwtable
define hidden void @_ZN6Assimp11LWSImporter15SetupPropertiesEPKNS_8ImporterE(ptr nocapture noundef nonnull align 8 dereferenceable(113) %this, ptr noundef nonnull %pImp) unnamed_addr #0 align 2 {
entry:
  %call = tail call noundef i32 @_ZNK6Assimp8Importer18GetPropertyIntegerEPKci(ptr noundef nonnull align 8 dereferenceable(8) %pImp, ptr noundef nonnull @.str.3, i32 noundef 0)
  %cmp = icmp ne i32 %call, 0
  %configSpeedFlag = getelementptr inbounds i8, ptr %this, i64 72
  %frombool = zext i1 %cmp to i8
  store i8 %frombool, ptr %configSpeedFlag, align 8
  %call2 = tail call noundef i32 @_ZNK6Assimp8Importer18GetPropertyIntegerEPKci(ptr noundef nonnull align 8 dereferenceable(8) %pImp, ptr noundef nonnull @.str.4, i32 noundef 150392)
  %conv = sitofp i32 %call2 to double
  %first = getelementptr inbounds i8, ptr %this, i64 88
  store double %conv, ptr %first, align 8
  %call3 = tail call noundef i32 @_ZNK6Assimp8Importer18GetPropertyIntegerEPKci(ptr noundef nonnull align 8 dereferenceable(8) %pImp, ptr noundef nonnull @.str.5, i32 noundef 150392)
  %conv4 = sitofp i32 %call3 to double
  %last = getelementptr inbounds i8, ptr %this, i64 96
  store double %conv4, ptr %last, align 8
  %0 = load double, ptr %first, align 8
  %cmp7 = fcmp ogt double %0, %conv4
  br i1 %cmp7, label %if.then, label %if.end

if.then:                                          ; preds = %entry
  store double %0, ptr %last, align 8
  store double %conv4, ptr %first, align 8
  br label %if.end

if.end:                                           ; preds = %if.then, %entry
  %call10 = tail call noundef i32 @_ZNK6Assimp8Importer18GetPropertyIntegerEPKci(ptr noundef nonnull align 8 dereferenceable(8) %pImp, ptr noundef nonnull @.str.6, i32 noundef 0)
  %cmp11 = icmp ne i32 %call10, 0
  %noSkeletonMesh = getelementptr inbounds i8, ptr %this, i64 112
  %frombool12 = zext i1 %cmp11 to i8
  store i8 %frombool12, ptr %noSkeletonMesh, align 8
  ret void
}